target datalayout = "e-m:e-p270:32:32-p271:32:32-p272:64:64-i64:64-i128:128-f80:128-n8:16:32:64-S128"
target triple = "x86_64-pc-linux-gnu"

%struct.engine_st = type { ptr, ptr, ptr, ptr, ptr, ptr, ptr, ptr, ptr, ptr, ptr, ptr, ptr, ptr, ptr, ptr, ptr, ptr, ptr, i32, %struct.CRYPTO_REF_COUNT, i32, %struct.crypto_ex_data_st, ptr, ptr, ptr, ptr, ptr }
%struct.CRYPTO_REF_COUNT = type { i32 }
%struct.crypto_ex_data_st = type { ptr, ptr }

@.str = private unnamed_addr constant [36 x i8] c"../openssl/crypto/engine/eng_pkey.c\00", align 1
@global_engine_lock = external global ptr, align 8
@__func__.ENGINE_load_ssl_client_cert = private unnamed_addr constant [28 x i8] c"ENGINE_load_ssl_client_cert\00", align 1

; Function Attrs: nounwind uwtable
define i32 @ENGINE_load_ssl_client_cert(ptr noundef %0, ptr noundef %1, ptr noundef %2, ptr noundef %3, ptr noundef %4, ptr noundef %5, ptr noundef %6, ptr noundef %7) #0 {
  %9 = alloca i32, align 4
  %10 = alloca ptr, align 8
  %11 = alloca ptr, align 8
  %12 = alloca ptr, align 8
  %13 = alloca ptr, align 8
  %14 = alloca ptr, align 8
  %15 = alloca ptr, align 8
  %16 = alloca ptr, align 8
  %17 = alloca ptr, align 8
  store ptr %0, ptr %10, align 8, !tbaa !3
  store ptr %1, ptr %11, align 8, !tbaa !31
  store ptr %2, ptr %12, align 8, !tbaa !33
  store ptr %3, ptr %13, align 8, !tbaa !35
  store ptr %4, ptr %14, align 8, !tbaa !37
  store ptr %5, ptr %15, align 8, !tbaa !39
  store ptr %6, ptr %16, align 8, !tbaa !26
  store ptr %7, ptr %17, align 8, !tbaa !8
  %18 = load ptr, ptr %10, align 8, !tbaa !3
  %19 = icmp eq ptr %18, null
  br i1 %19, label %20, label %21

20:                                               ; preds = %8
  call void @ERR_new()
  call void @ERR_set_debug(ptr noundef @.str, i32 noundef 121, ptr noundef @__func__.ENGINE_load_ssl_client_cert)
  call void (i32, i32, ptr, ...) @ERR_set_error(i32 noundef 38, i32 noundef 786690, ptr noundef null)
  store i32 0, ptr %9, align 4
  br label %55

21:                                               ; preds = %8
  %22 = load ptr, ptr @global_engine_lock, align 8, !tbaa !8
  %23 = call i32 @CRYPTO_THREAD_write_lock(ptr noundef %22)
  %24 = icmp ne i32 %23, 0
  br i1 %24, label %26, label %25

25:                                               ; preds = %21
  store i32 0, ptr %9, align 4
  br label %55

26:                                               ; preds = %21
  %27 = load ptr, ptr %10, align 8, !tbaa !3
  %28 = getelementptr inbounds nuw %struct.engine_st, ptr %27, i32 0, i32 21
  %29 = load i32, ptr %28, align 8, !tbaa !28
  %30 = icmp eq i32 %29, 0
  br i1 %30, label %31, label %34

31:                                               ; preds = %26
  %32 = load ptr, ptr @global_engine_lock, align 8, !tbaa !8
  %33 = call i32 @CRYPTO_THREAD_unlock(ptr noundef %32)
  call void @ERR_new()
  call void @ERR_set_debug(ptr noundef @.str, i32 noundef 128, ptr noundef @__func__.ENGINE_load_ssl_client_cert)
  call void (i32, i32, ptr, ...) @ERR_set_error(i32 noundef 38, i32 noundef 117, ptr noundef null)
  store i32 0, ptr %9, align 4
  br label %55

34:                                               ; preds = %26
  %35 = load ptr, ptr @global_engine_lock, align 8, !tbaa !8
  %36 = call i32 @CRYPTO_THREAD_unlock(ptr noundef %35)
  %37 = load ptr, ptr %10, align 8, !tbaa !3
  %38 = getelementptr inbounds nuw %struct.engine_st, ptr %37, i32 0, i32 17
  %39 = load ptr, ptr %38, align 8, !tbaa !24
  %40 = icmp ne ptr %39, null
  br i1 %40, label %42, label %41

41:                                               ; preds = %34
  call void @ERR_new()
  call void @ERR_set_debug(ptr noundef @.str, i32 noundef 133, ptr noundef @__func__.ENGINE_load_ssl_client_cert)
  call void (i32, i32, ptr, ...) @ERR_set_error(i32 noundef 38, i32 noundef 125, ptr noundef null)
  store i32 0, ptr %9, align 4
  br label %55

42:                                               ; preds = %34
  %43 = load ptr, ptr %10, align 8, !tbaa !3
  %44 = getelementptr inbounds nuw %struct.engine_st, ptr %43, i32 0, i32 17
  %45 = load ptr, ptr %44, align 8, !tbaa !24
  %46 = load ptr, ptr %10, align 8, !tbaa !3
  %47 = load ptr, ptr %11, align 8, !tbaa !31
  %48 = load ptr, ptr %12, align 8, !tbaa !33
  %49 = load ptr, ptr %13, align 8, !tbaa !35
  %50 = load ptr, ptr %14, align 8, !tbaa !37
  %51 = load ptr, ptr %15, align 8, !tbaa !39
  %52 = load ptr, ptr %16, align 8, !tbaa !26
  %53 = load ptr, ptr %17, align 8, !tbaa !8
  %54 = call i32 %45(ptr noundef %46, ptr noundef %47, ptr noundef %48, ptr noundef %49, ptr noundef %50, ptr noundef %51, ptr noundef %52, ptr noundef %53)
  store i32 %54, ptr %9, align 4
  br label %55

55:                                               ; preds = %42, %41, %31, %25, %20
  %56 = load i32, ptr %9, align 4
  ret i32 %56
}