; Function Attrs: nounwind uwtable
define i32 @ENGINE_load_ssl_client_cert(ptr noundef %0, ptr noundef %1, ptr noundef %2, ptr noundef %3, ptr noundef %4, ptr noundef %5, ptr noundef %6, ptr noundef %7) local_unnamed_addr #2 {
  %9 = icmp eq ptr %0, null
  br i1 %9, label %10, label %11

10:                                               ; preds = %8
  tail call void @ERR_new() #4
  tail call void @ERR_set_debug(ptr noundef nonnull @.str, i32 noundef 121, ptr noundef nonnull @__func__.ENGINE_load_ssl_client_cert) #4
  tail call void (i32, i32, ptr, ...) @ERR_set_error(i32 noundef 38, i32 noundef 786690, ptr noundef null) #4
  br label %27

11:                                               ; preds = %8
  %12 = load ptr, ptr @global_engine_lock, align 8, !tbaa !23
  %13 = tail call i32 @CRYPTO_THREAD_write_lock(ptr noundef %12) #4
  %.not = icmp eq i32 %13, 0
  br i1 %.not, label %27, label %14

14:                                               ; preds = %11
  %15 = getelementptr inbounds nuw i8, ptr %0, i64 160
  %16 = load i32, ptr %15, align 8, !tbaa !24
  %17 = icmp eq i32 %16, 0
  %18 = load ptr, ptr @global_engine_lock, align 8, !tbaa !23
  %19 = tail call i32 @CRYPTO_THREAD_unlock(ptr noundef %18) #4
  br i1 %17, label %20, label %21

20:                                               ; preds = %14
  tail call void @ERR_new() #4
  tail call void @ERR_set_debug(ptr noundef nonnull @.str, i32 noundef 128, ptr noundef nonnull @__func__.ENGINE_load_ssl_client_cert) #4
  tail call void (i32, i32, ptr, ...) @ERR_set_error(i32 noundef 38, i32 noundef 117, ptr noundef null) #4
  br label %27

21:                                               ; preds = %14
  %22 = getelementptr inbounds nuw i8, ptr %0, i64 136
  %23 = load ptr, ptr %22, align 8, !tbaa !22
  %.not14 = icmp eq ptr %23, null
  br i1 %.not14, label %24, label %25

24:                                               ; preds = %21
  tail call void @ERR_new() #4
  tail call void @ERR_set_debug(ptr noundef nonnull @.str, i32 noundef 133, ptr noundef nonnull @__func__.ENGINE_load_ssl_client_cert) #4
  tail call void (i32, i32, ptr, ...) @ERR_set_error(i32 noundef 38, i32 noundef 125, ptr noundef null) #4
  br label %27

25:                                               ; preds = %21
  %26 = tail call i32 %23(ptr noundef nonnull %0, ptr noundef %1, ptr noundef %2, ptr noundef %3, ptr noundef %4, ptr noundef %5, ptr noundef %6, ptr noundef %7) #4
  br label %27

27:                                               ; preds = %11, %25, %24, %20, %10
  %.0 = phi i32 [ 0, %10 ], [ 0, %20 ], [ %26, %25 ], [ 0, %24 ], [ 0, %11 ]
  ret i32 %.0
}